target datalayout = "e-m:e-p270:32:32-p271:32:32-p272:64:64-i64:64-i128:128-f80:128-n8:16:32:64-S128"
target triple = "x86_64-pc-linux-gnu"

%struct.GL_ShaderContext = type { ptr, ptr, ptr, ptr, ptr, ptr, ptr, ptr, ptr, ptr, ptr, ptr, ptr, ptr, ptr, ptr, i8, [11 x %struct.GL_ShaderData], [11 x ptr] }
%struct.GL_ShaderData = type { i32, i32, i32 }

@.str = private unnamed_addr constant [32 x i8] c"GL_ARB_texture_non_power_of_two\00", align 1
@.str.1 = private unnamed_addr constant [25 x i8] c"GL_ARB_texture_rectangle\00", align 1
@.str.2 = private unnamed_addr constant [25 x i8] c"GL_EXT_texture_rectangle\00", align 1
@.str.3 = private unnamed_addr constant [22 x i8] c"GL_ARB_shader_objects\00", align 1
@.str.4 = private unnamed_addr constant [28 x i8] c"GL_ARB_shading_language_100\00", align 1
@.str.5 = private unnamed_addr constant [21 x i8] c"GL_ARB_vertex_shader\00", align 1
@.str.6 = private unnamed_addr constant [23 x i8] c"GL_ARB_fragment_shader\00", align 1
@.str.7 = private unnamed_addr constant [11 x i8] c"glGetError\00", align 1
@.str.8 = private unnamed_addr constant [18 x i8] c"glAttachObjectARB\00", align 1
@.str.9 = private unnamed_addr constant [19 x i8] c"glCompileShaderARB\00", align 1
@.str.10 = private unnamed_addr constant [25 x i8] c"glCreateProgramObjectARB\00", align 1
@.str.11 = private unnamed_addr constant [24 x i8] c"glCreateShaderObjectARB\00", align 1
@.str.12 = private unnamed_addr constant [18 x i8] c"glDeleteObjectARB\00", align 1
@.str.13 = private unnamed_addr constant [16 x i8] c"glGetInfoLogARB\00", align 1
@.str.14 = private unnamed_addr constant [26 x i8] c"glGetObjectParameterivARB\00", align 1
@.str.15 = private unnamed_addr constant [24 x i8] c"glGetUniformLocationARB\00", align 1
@.str.16 = private unnamed_addr constant [17 x i8] c"glLinkProgramARB\00", align 1
@.str.17 = private unnamed_addr constant [18 x i8] c"glShaderSourceARB\00", align 1
@.str.18 = private unnamed_addr constant [15 x i8] c"glUniform1iARB\00", align 1
@.str.19 = private unnamed_addr constant [15 x i8] c"glUniform1fARB\00", align 1
@.str.20 = private unnamed_addr constant [15 x i8] c"glUniform3fARB\00", align 1
@.str.21 = private unnamed_addr constant [15 x i8] c"glUniform4fARB\00", align 1
@.str.22 = private unnamed_addr constant [22 x i8] c"glUseProgramObjectARB\00", align 1

; Function Attrs: nounwind uwtable
define hidden ptr @GL_CreateShaderContext() #0 {
  %1 = alloca ptr, align 8
  %2 = alloca ptr, align 8
  %3 = alloca i8, align 1
  %4 = alloca i32, align 4
  %5 = alloca i32, align 4
  call void @llvm.lifetime.start.p0(i64 8, ptr %2) #4
  call void @llvm.lifetime.start.p0(i64 1, ptr %3) #4
  call void @llvm.lifetime.start.p0(i64 4, ptr %4) #4
  %6 = call noalias ptr @SDL_calloc_REAL(i64 noundef 1, i64 noundef 352) #5
  store ptr %6, ptr %2, align 8
  %7 = load ptr, ptr %2, align 8
  %8 = icmp ne ptr %7, null
  br i1 %8, label %10, label %9

9:                                                ; preds = %0
  store ptr null, ptr %1, align 8
  store i32 1, ptr %5, align 4
  br label %178

10:                                               ; preds = %0
  %11 = call zeroext i1 @SDL_GL_ExtensionSupported_REAL(ptr noundef @.str)
  br i1 %11, label %19, label %12

12:                                               ; preds = %10
  %13 = call zeroext i1 @SDL_GL_ExtensionSupported_REAL(ptr noundef @.str.1)
  br i1 %13, label %16, label %14

14:                                               ; preds = %12
  %15 = call zeroext i1 @SDL_GL_ExtensionSupported_REAL(ptr noundef @.str.2)
  br i1 %15, label %16, label %19

16:                                               ; preds = %14, %12
  %17 = load ptr, ptr %2, align 8
  %18 = getelementptr inbounds nuw %struct.GL_ShaderContext, ptr %17, i32 0, i32 16
  store i8 1, ptr %18, align 8
  br label %19

19:                                               ; preds = %16, %14, %10
  store i8 0, ptr %3, align 1
  %20 = call zeroext i1 @SDL_GL_ExtensionSupported_REAL(ptr noundef @.str.3)
  br i1 %20, label %21, label %152

21:                                               ; preds = %19
  %22 = call zeroext i1 @SDL_GL_ExtensionSupported_REAL(ptr noundef @.str.4)
  br i1 %22, label %23, label %152

23:                                               ; preds = %21
  %24 = call zeroext i1 @SDL_GL_ExtensionSupported_REAL(ptr noundef @.str.5)
  br i1 %24, label %25, label %152

25:                                               ; preds = %23
  %26 = call zeroext i1 @SDL_GL_ExtensionSupported_REAL(ptr noundef @.str.6)
  br i1 %26, label %27, label %152

27:                                               ; preds = %25
  %28 = call ptr @SDL_GL_GetProcAddress_REAL(ptr noundef @.str.7)
  %29 = load ptr, ptr %2, align 8
  %30 = getelementptr inbounds nuw %struct.GL_ShaderContext, ptr %29, i32 0, i32 0
  store ptr %28, ptr %30, align 8
  %31 = call ptr @SDL_GL_GetProcAddress_REAL(ptr noundef @.str.8)
  %32 = load ptr, ptr %2, align 8
  %33 = getelementptr inbounds nuw %struct.GL_ShaderContext, ptr %32, i32 0, i32 1
  store ptr %31, ptr %33, align 8
  %34 = call ptr @SDL_GL_GetProcAddress_REAL(ptr noundef @.str.9)
  %35 = load ptr, ptr %2, align 8
  %36 = getelementptr inbounds nuw %struct.GL_ShaderContext, ptr %35, i32 0, i32 2
  store ptr %34, ptr %36, align 8
  %37 = call ptr @SDL_GL_GetProcAddress_REAL(ptr noundef @.str.10)
  %38 = load ptr, ptr %2, align 8
  %39 = getelementptr inbounds nuw %struct.GL_ShaderContext, ptr %38, i32 0, i32 3
  store ptr %37, ptr %39, align 8
  %40 = call ptr @SDL_GL_GetProcAddress_REAL(ptr noundef @.str.11)
  %41 = load ptr, ptr %2, align 8
  %42 = getelementptr inbounds nuw %struct.GL_ShaderContext, ptr %41, i32 0, i32 4
  store ptr %40, ptr %42, align 8
  %43 = call ptr @SDL_GL_GetProcAddress_REAL(ptr noundef @.str.12)
  %44 = load ptr, ptr %2, align 8
  %45 = getelementptr inbounds nuw %struct.GL_ShaderContext, ptr %44, i32 0, i32 5
  store ptr %43, ptr %45, align 8
  %46 = call ptr @SDL_GL_GetProcAddress_REAL(ptr noundef @.str.13)
  %47 = load ptr, ptr %2, align 8
  %48 = getelementptr inbounds nuw %struct.GL_ShaderContext, ptr %47, i32 0, i32 6
  store ptr %46, ptr %48, align 8
  %49 = call ptr @SDL_GL_GetProcAddress_REAL(ptr noundef @.str.14)
  %50 = load ptr, ptr %2, align 8
  %51 = getelementptr inbounds nuw %struct.GL_ShaderContext, ptr %50, i32 0, i32 7
  store ptr %49, ptr %51, align 8
  %52 = call ptr @SDL_GL_GetProcAddress_REAL(ptr noundef @.str.15)
  %53 = load ptr, ptr %2, align 8
  %54 = getelementptr inbounds nuw %struct.GL_ShaderContext, ptr %53, i32 0, i32 8
  store ptr %52, ptr %54, align 8
  %55 = call ptr @SDL_GL_GetProcAddress_REAL(ptr noundef @.str.16)
  %56 = load ptr, ptr %2, align 8
  %57 = getelementptr inbounds nuw %struct.GL_ShaderContext, ptr %56, i32 0, i32 9
  store ptr %55, ptr %57, align 8
  %58 = call ptr @SDL_GL_GetProcAddress_REAL(ptr noundef @.str.17)
  %59 = load ptr, ptr %2, align 8
  %60 = getelementptr inbounds nuw %struct.GL_ShaderContext, ptr %59, i32 0, i32 10
  store ptr %58, ptr %60, align 8
  %61 = call ptr @SDL_GL_GetProcAddress_REAL(ptr noundef @.str.18)
  %62 = load ptr, ptr %2, align 8
  %63 = getelementptr inbounds nuw %struct.GL_ShaderContext, ptr %62, i32 0, i32 11
  store ptr %61, ptr %63, align 8
  %64 = call ptr @SDL_GL_GetProcAddress_REAL(ptr noundef @.str.19)
  %65 = load ptr, ptr %2, align 8
  %66 = getelementptr inbounds nuw %struct.GL_ShaderContext, ptr %65, i32 0, i32 12
  store ptr %64, ptr %66, align 8
  %67 = call ptr @SDL_GL_GetProcAddress_REAL(ptr noundef @.str.20)
  %68 = load ptr, ptr %2, align 8
  %69 = getelementptr inbounds nuw %struct.GL_ShaderContext, ptr %68, i32 0, i32 13
  store ptr %67, ptr %69, align 8
  %70 = call ptr @SDL_GL_GetProcAddress_REAL(ptr noundef @.str.21)
  %71 = load ptr, ptr %2, align 8
  %72 = getelementptr inbounds nuw %struct.GL_ShaderContext, ptr %71, i32 0, i32 14
  store ptr %70, ptr %72, align 8
  %73 = call ptr @SDL_GL_GetProcAddress_REAL(ptr noundef @.str.22)
  %74 = load ptr, ptr %2, align 8
  %75 = getelementptr inbounds nuw %struct.GL_ShaderContext, ptr %74, i32 0, i32 15
  store ptr %73, ptr %75, align 8
  %76 = load ptr, ptr %2, align 8
  %77 = getelementptr inbounds nuw %struct.GL_ShaderContext, ptr %76, i32 0, i32 0
  %78 = load ptr, ptr %77, align 8
  %79 = icmp ne ptr %78, null
  br i1 %79, label %80, label %151

80:                                               ; preds = %27
  %81 = load ptr, ptr %2, align 8
  %82 = getelementptr inbounds nuw %struct.GL_ShaderContext, ptr %81, i32 0, i32 1
  %83 = load ptr, ptr %82, align 8
  %84 = icmp ne ptr %83, null
  br i1 %84, label %85, label %151

85:                                               ; preds = %80
  %86 = load ptr, ptr %2, align 8
  %87 = getelementptr inbounds nuw %struct.GL_ShaderContext, ptr %86, i32 0, i32 2
  %88 = load ptr, ptr %87, align 8
  %89 = icmp ne ptr %88, null
  br i1 %89, label %90, label %151

90:                                               ; preds = %85
  %91 = load ptr, ptr %2, align 8
  %92 = getelementptr inbounds nuw %struct.GL_ShaderContext, ptr %91, i32 0, i32 3
  %93 = load ptr, ptr %92, align 8
  %94 = icmp ne ptr %93, null
  br i1 %94, label %95, label %151

95:                                               ; preds = %90
  %96 = load ptr, ptr %2, align 8
  %97 = getelementptr inbounds nuw %struct.GL_ShaderContext, ptr %96, i32 0, i32 4
  %98 = load ptr, ptr %97, align 8
  %99 = icmp ne ptr %98, null
  br i1 %99, label %100, label %151

100:                                              ; preds = %95
  %101 = load ptr, ptr %2, align 8
  %102 = getelementptr inbounds nuw %struct.GL_ShaderContext, ptr %101, i32 0, i32 5
  %103 = load ptr, ptr %102, align 8
  %104 = icmp ne ptr %103, null
  br i1 %104, label %105, label %151

105:                                              ; preds = %100
  %106 = load ptr, ptr %2, align 8
  %107 = getelementptr inbounds nuw %struct.GL_ShaderContext, ptr %106, i32 0, i32 6
  %108 = load ptr, ptr %107, align 8
  %109 = icmp ne ptr %108, null
  br i1 %109, label %110, label %151

110:                                              ; preds = %105
  %111 = load ptr, ptr %2, align 8
  %112 = getelementptr inbounds nuw %struct.GL_ShaderContext, ptr %111, i32 0, i32 7
  %113 = load ptr, ptr %112, align 8
  %114 = icmp ne ptr %113, null
  br i1 %114, label %115, label %151

115:                                              ; preds = %110
  %116 = load ptr, ptr %2, align 8
  %117 = getelementptr inbounds nuw %struct.GL_ShaderContext, ptr %116, i32 0, i32 8
  %118 = load ptr, ptr %117, align 8
  %119 = icmp ne ptr %118, null
  br i1 %119, label %120, label %151

120:                                              ; preds = %115
  %121 = load ptr, ptr %2, align 8
  %122 = getelementptr inbounds nuw %struct.GL_ShaderContext, ptr %121, i32 0, i32 9
  %123 = load ptr, ptr %122, align 8
  %124 = icmp ne ptr %123, null
  br i1 %124, label %125, label %151

125:                                              ; preds = %120
  %126 = load ptr, ptr %2, align 8
  %127 = getelementptr inbounds nuw %struct.GL_ShaderContext, ptr %126, i32 0, i32 10
  %128 = load ptr, ptr %127, align 8
  %129 = icmp ne ptr %128, null
  br i1 %129, label %130, label %151

130:                                              ; preds = %125
  %131 = load ptr, ptr %2, align 8
  %132 = getelementptr inbounds nuw %struct.GL_ShaderContext, ptr %131, i32 0, i32 11
  %133 = load ptr, ptr %132, align 8
  %134 = icmp ne ptr %133, null
  br i1 %134, label %135, label %151

135:                                              ; preds = %130
  %136 = load ptr, ptr %2, align 8
  %137 = getelementptr inbounds nuw %struct.GL_ShaderContext, ptr %136, i32 0, i32 12
  %138 = load ptr, ptr %137, align 8
  %139 = icmp ne ptr %138, null
  br i1 %139, label %140, label %151

140:                                              ; preds = %135
  %141 = load ptr, ptr %2, align 8
  %142 = getelementptr inbounds nuw %struct.GL_ShaderContext, ptr %141, i32 0, i32 13
  %143 = load ptr, ptr %142, align 8
  %144 = icmp ne ptr %143, null
  br i1 %144, label %145, label %151

145:                                              ; preds = %140
  %146 = load ptr, ptr %2, align 8
  %147 = getelementptr inbounds nuw %struct.GL_ShaderContext, ptr %146, i32 0, i32 15
  %148 = load ptr, ptr %147, align 8
  %149 = icmp ne ptr %148, null
  br i1 %149, label %150, label %151

150:                                              ; preds = %145
  store i8 1, ptr %3, align 1
  br label %151

151:                                              ; preds = %150, %145, %140, %135, %130, %125, %120, %115, %110, %105, %100, %95, %90, %85, %80, %27
  br label %152

152:                                              ; preds = %151, %25, %23, %21, %19
  %153 = load i8, ptr %3, align 1, !range !3, !noundef !4
  %154 = trunc i8 %153 to i1
  br i1 %154, label %157, label %155

155:                                              ; preds = %152
  %156 = load ptr, ptr %2, align 8
  call void @SDL_free_REAL(ptr noundef %156)
  store ptr null, ptr %1, align 8
  store i32 1, ptr %5, align 4
  br label %178

157:                                              ; preds = %152
  store i32 0, ptr %4, align 4
  br label %158

158:                                              ; preds = %173, %157
  %159 = load i32, ptr %4, align 4
  %160 = icmp slt i32 %159, 11
  br i1 %160, label %161, label %176

161:                                              ; preds = %158
  %162 = load ptr, ptr %2, align 8
  %163 = load i32, ptr %4, align 4
  %164 = load ptr, ptr %2, align 8
  %165 = getelementptr inbounds nuw %struct.GL_ShaderContext, ptr %164, i32 0, i32 17
  %166 = load i32, ptr %4, align 4
  %167 = sext i32 %166 to i64
  %168 = getelementptr inbounds [11 x %struct.GL_ShaderData], ptr %165, i64 0, i64 %167
  %169 = call zeroext i1 @CompileShaderProgram(ptr noundef %162, i32 noundef %163, ptr noundef %168)
  br i1 %169, label %172, label %170

170:                                              ; preds = %161
  %171 = load ptr, ptr %2, align 8
  call void @GL_DestroyShaderContext(ptr noundef %171)
  store ptr null, ptr %1, align 8
  store i32 1, ptr %5, align 4
  br label %178

172:                                              ; preds = %161
  br label %173

173:                                              ; preds = %172
  %174 = load i32, ptr %4, align 4
  %175 = add nsw i32 %174, 1
  store i32 %175, ptr %4, align 4
  br label %158, !llvm.loop !5

176:                                              ; preds = %158
  %177 = load ptr, ptr %2, align 8
  store ptr %177, ptr %1, align 8
  store i32 1, ptr %5, align 4
  br label %178

178:                                              ; preds = %176, %170, %155, %9
  call void @llvm.lifetime.end.p0(i64 4, ptr %4) #4
  call void @llvm.lifetime.end.p0(i64 1, ptr %3) #4
  call void @llvm.lifetime.end.p0(i64 8, ptr %2) #4
  %179 = load ptr, ptr %1, align 8
  ret ptr %179
}