; Function Attrs: nounwind uwtable
define hidden noundef ptr @GL_CreateShaderContext() local_unnamed_addr #0 {
  %1 = tail call noalias dereferenceable_or_null(352) ptr @SDL_calloc_REAL(i64 noundef 1, i64 noundef 352) #4
  %.not = icmp eq ptr %1, null
  br i1 %.not, label %.loopexit, label %2

2:                                                ; preds = %0
  %3 = tail call zeroext i1 @SDL_GL_ExtensionSupported_REAL(ptr noundef nonnull @.str) #5
  br i1 %3, label %10, label %4

4:                                                ; preds = %2
  %5 = tail call zeroext i1 @SDL_GL_ExtensionSupported_REAL(ptr noundef nonnull @.str.1) #5
  br i1 %5, label %8, label %6

6:                                                ; preds = %4
  %7 = tail call zeroext i1 @SDL_GL_ExtensionSupported_REAL(ptr noundef nonnull @.str.2) #5
  br i1 %7, label %8, label %10

8:                                                ; preds = %6, %4
  %9 = getelementptr inbounds nuw i8, ptr %1, i64 128
  store i8 1, ptr %9, align 8
  br label %10

10:                                               ; preds = %8, %6, %2
  %11 = tail call zeroext i1 @SDL_GL_ExtensionSupported_REAL(ptr noundef nonnull @.str.3) #5
  br i1 %11, label %12, label %78

12:                                               ; preds = %10
  %13 = tail call zeroext i1 @SDL_GL_ExtensionSupported_REAL(ptr noundef nonnull @.str.4) #5
  br i1 %13, label %14, label %78

14:                                               ; preds = %12
  %15 = tail call zeroext i1 @SDL_GL_ExtensionSupported_REAL(ptr noundef nonnull @.str.5) #5
  br i1 %15, label %16, label %78

16:                                               ; preds = %14
  %17 = tail call zeroext i1 @SDL_GL_ExtensionSupported_REAL(ptr noundef nonnull @.str.6) #5
  br i1 %17, label %18, label %78

18:                                               ; preds = %16
  %19 = tail call ptr @SDL_GL_GetProcAddress_REAL(ptr noundef nonnull @.str.7) #5
  store ptr %19, ptr %1, align 8
  %20 = tail call ptr @SDL_GL_GetProcAddress_REAL(ptr noundef nonnull @.str.8) #5
  %21 = getelementptr inbounds nuw i8, ptr %1, i64 8
  store ptr %20, ptr %21, align 8
  %22 = tail call ptr @SDL_GL_GetProcAddress_REAL(ptr noundef nonnull @.str.9) #5
  %23 = getelementptr inbounds nuw i8, ptr %1, i64 16
  store ptr %22, ptr %23, align 8
  %24 = tail call ptr @SDL_GL_GetProcAddress_REAL(ptr noundef nonnull @.str.10) #5
  %25 = getelementptr inbounds nuw i8, ptr %1, i64 24
  store ptr %24, ptr %25, align 8
  %26 = tail call ptr @SDL_GL_GetProcAddress_REAL(ptr noundef nonnull @.str.11) #5
  %27 = getelementptr inbounds nuw i8, ptr %1, i64 32
  store ptr %26, ptr %27, align 8
  %28 = tail call ptr @SDL_GL_GetProcAddress_REAL(ptr noundef nonnull @.str.12) #5
  %29 = getelementptr inbounds nuw i8, ptr %1, i64 40
  store ptr %28, ptr %29, align 8
  %30 = tail call ptr @SDL_GL_GetProcAddress_REAL(ptr noundef nonnull @.str.13) #5
  %31 = getelementptr inbounds nuw i8, ptr %1, i64 48
  store ptr %30, ptr %31, align 8
  %32 = tail call ptr @SDL_GL_GetProcAddress_REAL(ptr noundef nonnull @.str.14) #5
  %33 = getelementptr inbounds nuw i8, ptr %1, i64 56
  store ptr %32, ptr %33, align 8
  %34 = tail call ptr @SDL_GL_GetProcAddress_REAL(ptr noundef nonnull @.str.15) #5
  %35 = getelementptr inbounds nuw i8, ptr %1, i64 64
  store ptr %34, ptr %35, align 8
  %36 = tail call ptr @SDL_GL_GetProcAddress_REAL(ptr noundef nonnull @.str.16) #5
  %37 = getelementptr inbounds nuw i8, ptr %1, i64 72
  store ptr %36, ptr %37, align 8
  %38 = tail call ptr @SDL_GL_GetProcAddress_REAL(ptr noundef nonnull @.str.17) #5
  %39 = getelementptr inbounds nuw i8, ptr %1, i64 80
  store ptr %38, ptr %39, align 8
  %40 = tail call ptr @SDL_GL_GetProcAddress_REAL(ptr noundef nonnull @.str.18) #5
  %41 = getelementptr inbounds nuw i8, ptr %1, i64 88
  store ptr %40, ptr %41, align 8
  %42 = tail call ptr @SDL_GL_GetProcAddress_REAL(ptr noundef nonnull @.str.19) #5
  %43 = getelementptr inbounds nuw i8, ptr %1, i64 96
  store ptr %42, ptr %43, align 8
  %44 = tail call ptr @SDL_GL_GetProcAddress_REAL(ptr noundef nonnull @.str.20) #5
  %45 = getelementptr inbounds nuw i8, ptr %1, i64 104
  store ptr %44, ptr %45, align 8
  %46 = tail call ptr @SDL_GL_GetProcAddress_REAL(ptr noundef nonnull @.str.21) #5
  %47 = getelementptr inbounds nuw i8, ptr %1, i64 112
  store ptr %46, ptr %47, align 8
  %48 = tail call ptr @SDL_GL_GetProcAddress_REAL(ptr noundef nonnull @.str.22) #5
  %49 = getelementptr inbounds nuw i8, ptr %1, i64 120
  store ptr %48, ptr %49, align 8
  %50 = load ptr, ptr %1, align 8
  %.not46 = icmp eq ptr %50, null
  br i1 %.not46, label %78, label %51

51:                                               ; preds = %18
  %52 = load ptr, ptr %21, align 8
  %.not47 = icmp eq ptr %52, null
  br i1 %.not47, label %78, label %53

53:                                               ; preds = %51
  %54 = load ptr, ptr %23, align 8
  %.not48 = icmp eq ptr %54, null
  br i1 %.not48, label %78, label %55

55:                                               ; preds = %53
  %56 = load ptr, ptr %25, align 8
  %.not49 = icmp eq ptr %56, null
  br i1 %.not49, label %78, label %57

57:                                               ; preds = %55
  %58 = load ptr, ptr %27, align 8
  %.not50 = icmp eq ptr %58, null
  br i1 %.not50, label %78, label %59

59:                                               ; preds = %57
  %60 = load ptr, ptr %29, align 8
  %.not51 = icmp eq ptr %60, null
  br i1 %.not51, label %78, label %61

61:                                               ; preds = %59
  %62 = load ptr, ptr %31, align 8
  %.not52 = icmp eq ptr %62, null
  br i1 %.not52, label %78, label %63

63:                                               ; preds = %61
  %64 = load ptr, ptr %33, align 8
  %.not53 = icmp eq ptr %64, null
  br i1 %.not53, label %78, label %65

65:                                               ; preds = %63
  %66 = load ptr, ptr %35, align 8
  %.not54 = icmp eq ptr %66, null
  br i1 %.not54, label %78, label %67

67:                                               ; preds = %65
  %68 = load ptr, ptr %37, align 8
  %.not55 = icmp eq ptr %68, null
  br i1 %.not55, label %78, label %69

69:                                               ; preds = %67
  %70 = load ptr, ptr %39, align 8
  %.not56 = icmp eq ptr %70, null
  br i1 %.not56, label %78, label %71

71:                                               ; preds = %69
  %72 = load ptr, ptr %41, align 8
  %.not57 = icmp eq ptr %72, null
  br i1 %.not57, label %78, label %73

73:                                               ; preds = %71
  %74 = load ptr, ptr %43, align 8
  %.not58 = icmp eq ptr %74, null
  br i1 %.not58, label %78, label %75

75:                                               ; preds = %73
  %76 = load ptr, ptr %45, align 8
  %.not59 = icmp eq ptr %76, null
  %.not60 = icmp eq ptr %48, null
  %or.cond = select i1 %.not59, i1 true, i1 %.not60
  br i1 %or.cond, label %78, label %.critedge.preheader

.critedge.preheader:                              ; preds = %75
  %77 = getelementptr inbounds nuw i8, ptr %1, i64 132
  br label %79

78:                                               ; preds = %10, %12, %14, %16, %75, %73, %71, %69, %67, %65, %63, %61, %59, %57, %55, %53, %51, %18
  tail call void @SDL_free_REAL(ptr noundef nonnull %1) #5
  br label %.loopexit

.critedge:                                        ; preds = %79
  %indvars.iv.next = add nuw nsw i64 %indvars.iv, 1
  %exitcond.not = icmp eq i64 %indvars.iv.next, 11
  br i1 %exitcond.not, label %.loopexit, label %79, !llvm.loop !3

79:                                               ; preds = %.critedge.preheader, %.critedge
  %indvars.iv = phi i64 [ 0, %.critedge.preheader ], [ %indvars.iv.next, %.critedge ]
  %80 = getelementptr inbounds nuw [11 x %struct.GL_ShaderData], ptr %77, i64 0, i64 %indvars.iv
  %81 = trunc nuw nsw i64 %indvars.iv to i32
  %82 = tail call fastcc zeroext i1 @CompileShaderProgram(ptr noundef %1, i32 noundef %81, ptr noundef %80)
  br i1 %82, label %.critedge, label %83

83:                                               ; preds = %79
  tail call void @GL_DestroyShaderContext(ptr noundef nonnull %1)
  br label %.loopexit

.loopexit:                                        ; preds = %.critedge, %0, %83, %78
  %.044 = phi ptr [ null, %83 ], [ null, %78 ], [ null, %0 ], [ %1, %.critedge ]
  ret ptr %.044
}